; Function Attrs: mustprogress nofree norecurse nosync nounwind willreturn memory(argmem: write) uwtable
define internal noundef i32 @file_new(ptr noundef writeonly captures(none) initializes((40, 44), (48, 52), (56, 60), (64, 72)) %0) #8 {
  %2 = getelementptr inbounds nuw i8, ptr %0, i64 40
  store i32 0, ptr %2, align 8, !tbaa !7
  %3 = getelementptr inbounds nuw i8, ptr %0, i64 56
  store i32 0, ptr %3, align 8, !tbaa !24
  %4 = getelementptr inbounds nuw i8, ptr %0, i64 64
  store ptr null, ptr %4, align 8, !tbaa !18
  %5 = getelementptr inbounds nuw i8, ptr %0, i64 48
  store i32 0, ptr %5, align 8, !tbaa !21
  ret i32 1
}